                                      1 ;--------------------------------------------------------
                                      2 ; File Created by SDCC : free open source ANSI-C Compiler
                                      3 ; Version 4.2.0 #13081 (MINGW64)
                                      4 ;--------------------------------------------------------
                                      5 	.module ds18X20
                                      6 	.optsdcc -mstm8
                                      7 	
                                      8 ;--------------------------------------------------------
                                      9 ; Public variables in this module
                                     10 ;--------------------------------------------------------
                                     11 	.globl _delay_ms
                                     12 	.globl _delay_us
                                     13 	.globl _GPIO_ReadInputPin
                                     14 	.globl _GPIO_WriteLow
                                     15 	.globl _GPIO_WriteHigh
                                     16 	.globl _GPIO_Init
                                     17 	.globl _GPIO_DeInit
                                     18 	.globl _DS18X20_Reset
                                     19 	.globl _DS18X20_Write_Byte
                                     20 	.globl _DS18X20_Read_Byte
                                     21 	.globl _DS18X20_Read_ID
                                     22 	.globl _DS18X20_Skip_ID
                                     23 	.globl _DS18X20_Get_Temperature
                                     24 	.globl _DS18X20_Setup
                                     25 ;--------------------------------------------------------
                                     26 ; ram data
                                     27 ;--------------------------------------------------------
                                     28 	.area DATA
                                     29 ;--------------------------------------------------------
                                     30 ; ram data
                                     31 ;--------------------------------------------------------
                                     32 	.area INITIALIZED
                                     33 ;--------------------------------------------------------
                                     34 ; absolute external ram data
                                     35 ;--------------------------------------------------------
                                     36 	.area DABS (ABS)
                                     37 
                                     38 ; default segment ordering for linker
                                     39 	.area HOME
                                     40 	.area GSINIT
                                     41 	.area GSFINAL
                                     42 	.area CONST
                                     43 	.area INITIALIZER
                                     44 	.area CODE
                                     45 
                                     46 ;--------------------------------------------------------
                                     47 ; global & static initialisations
                                     48 ;--------------------------------------------------------
                                     49 	.area HOME
                                     50 	.area GSINIT
                                     51 	.area GSFINAL
                                     52 	.area GSINIT
                                     53 ;--------------------------------------------------------
                                     54 ; Home
                                     55 ;--------------------------------------------------------
                                     56 	.area HOME
                                     57 	.area HOME
                                     58 ;--------------------------------------------------------
                                     59 ; code
                                     60 ;--------------------------------------------------------
                                     61 	.area CODE
                                     62 ;	src\ds18X20.c: 3: bool DS18X20_Reset(void) {
                                     63 ;	-----------------------------------------
                                     64 ;	 function DS18X20_Reset
                                     65 ;	-----------------------------------------
      009FAC                         66 _DS18X20_Reset:
                                     67 ;	src\ds18X20.c: 6: OW_LOW();
      009FAC A6 08            [ 1]   68 	ld	a, #0x08
      009FAE AE 50 0A         [ 2]   69 	ldw	x, #0x500a
      009FB1 CD 88 74         [ 4]   70 	call	_GPIO_WriteLow
                                     71 ;	src\ds18X20.c: 8: delay_us(900);
      009FB4 AE 03 84         [ 2]   72 	ldw	x, #0x0384
      009FB7 CD 9F 8A         [ 4]   73 	call	_delay_us
                                     74 ;	src\ds18X20.c: 9: OW_HIGH();
      009FBA A6 08            [ 1]   75 	ld	a, #0x08
      009FBC AE 50 0A         [ 2]   76 	ldw	x, #0x500a
      009FBF CD 88 6B         [ 4]   77 	call	_GPIO_WriteHigh
                                     78 ;	src\ds18X20.c: 11: delay_us(120);
      009FC2 AE 00 78         [ 2]   79 	ldw	x, #0x0078
      009FC5 CD 9F 8A         [ 4]   80 	call	_delay_us
                                     81 ;	src\ds18X20.c: 13: if(!OW_READ()) {
      009FC8 A6 08            [ 1]   82 	ld	a, #0x08
      009FCA AE 50 0A         [ 2]   83 	ldw	x, #0x500a
      009FCD CD 88 80         [ 4]   84 	call	_GPIO_ReadInputPin
      009FD0 4D               [ 1]   85 	tnz	a
      009FD1 26 1A            [ 1]   86 	jrne	00104$
                                     87 ;	src\ds18X20.c: 14: delay_us(480);
      009FD3 AE 01 E0         [ 2]   88 	ldw	x, #0x01e0
      009FD6 CD 9F 8A         [ 4]   89 	call	_delay_us
                                     90 ;	src\ds18X20.c: 15: if(OW_READ()) {
      009FD9 A6 08            [ 1]   91 	ld	a, #0x08
      009FDB AE 50 0A         [ 2]   92 	ldw	x, #0x500a
      009FDE CD 88 80         [ 4]   93 	call	_GPIO_ReadInputPin
      009FE1 4D               [ 1]   94 	tnz	a
      009FE2 27 0F            [ 1]   95 	jreq	00105$
                                     96 ;	src\ds18X20.c: 16: delay_us(360);
      009FE4 AE 01 68         [ 2]   97 	ldw	x, #0x0168
      009FE7 CD 9F 8A         [ 4]   98 	call	_delay_us
                                     99 ;	src\ds18X20.c: 17: return TRUE;
      009FEA A6 01            [ 1]  100 	ld	a, #0x01
      009FEC 81               [ 4]  101 	ret
      009FED                        102 00104$:
                                    103 ;	src\ds18X20.c: 20: delay_us(900);
      009FED AE 03 84         [ 2]  104 	ldw	x, #0x0384
      009FF0 CD 9F 8A         [ 4]  105 	call	_delay_us
      009FF3                        106 00105$:
                                    107 ;	src\ds18X20.c: 23: return FALSE;
      009FF3 4F               [ 1]  108 	clr	a
                                    109 ;	src\ds18X20.c: 25: }
      009FF4 81               [ 4]  110 	ret
                                    111 ;	src\ds18X20.c: 27: void DS18X20_Write_Byte(uint8_t data) {
                                    112 ;	-----------------------------------------
                                    113 ;	 function DS18X20_Write_Byte
                                    114 ;	-----------------------------------------
      009FF5                        115 _DS18X20_Write_Byte:
      009FF5 89               [ 2]  116 	pushw	x
      009FF6 6B 01            [ 1]  117 	ld	(0x01, sp), a
                                    118 ;	src\ds18X20.c: 28: for(uint8_t i = 0; i < 8; i++)
      009FF8 0F 02            [ 1]  119 	clr	(0x02, sp)
      009FFA                        120 00106$:
      009FFA 7B 02            [ 1]  121 	ld	a, (0x02, sp)
      009FFC A1 08            [ 1]  122 	cp	a, #0x08
      009FFE 24 47            [ 1]  123 	jrnc	00108$
                                    124 ;	src\ds18X20.c: 30: if(data & 0x01)
      00A000 7B 01            [ 1]  125 	ld	a, (0x01, sp)
      00A002 44               [ 1]  126 	srl	a
      00A003 24 1F            [ 1]  127 	jrnc	00102$
                                    128 ;	src\ds18X20.c: 32: OW_LOW();               /* master - drive bus low */
      00A005 A6 08            [ 1]  129 	ld	a, #0x08
      00A007 AE 50 0A         [ 2]  130 	ldw	x, #0x500a
      00A00A CD 88 74         [ 4]  131 	call	_GPIO_WriteLow
                                    132 ;	src\ds18X20.c: 34: __asm__ ("nop");
      00A00D 9D               [ 1]  133 	nop
                                    134 ;	src\ds18X20.c: 35: __asm__ ("nop");
      00A00E 9D               [ 1]  135 	nop
                                    136 ;	src\ds18X20.c: 36: __asm__ ("nop");
      00A00F 9D               [ 1]  137 	nop
                                    138 ;	src\ds18X20.c: 37: __asm__ ("nop");
      00A010 9D               [ 1]  139 	nop
                                    140 ;	src\ds18X20.c: 38: __asm__ ("nop");
      00A011 9D               [ 1]  141 	nop
                                    142 ;	src\ds18X20.c: 39: __asm__ ("nop");
      00A012 9D               [ 1]  143 	nop
                                    144 ;	src\ds18X20.c: 40: __asm__ ("nop");
      00A013 9D               [ 1]  145 	nop
                                    146 ;	src\ds18X20.c: 41: OW_HIGH();              /* master - release bus */
      00A014 A6 08            [ 1]  147 	ld	a, #0x08
      00A016 AE 50 0A         [ 2]  148 	ldw	x, #0x500a
      00A019 CD 88 6B         [ 4]  149 	call	_GPIO_WriteHigh
                                    150 ;	src\ds18X20.c: 43: delay_us(50);   /* master - wait 64us (B-59,64,N/A) */
      00A01C AE 00 32         [ 2]  151 	ldw	x, #0x0032
      00A01F CD 9F 8A         [ 4]  152 	call	_delay_us
      00A022 20 1D            [ 2]  153 	jra	00103$
      00A024                        154 00102$:
                                    155 ;	src\ds18X20.c: 47: OW_LOW();                /* master - drive bus low */
      00A024 A6 08            [ 1]  156 	ld	a, #0x08
      00A026 AE 50 0A         [ 2]  157 	ldw	x, #0x500a
      00A029 CD 88 74         [ 4]  158 	call	_GPIO_WriteLow
                                    159 ;	src\ds18X20.c: 48: delay_us(50);    /* master - wait 60us (C-60,60,120) */
      00A02C AE 00 32         [ 2]  160 	ldw	x, #0x0032
      00A02F CD 9F 8A         [ 4]  161 	call	_delay_us
                                    162 ;	src\ds18X20.c: 49: OW_HIGH();               /* master - release bus */
      00A032 A6 08            [ 1]  163 	ld	a, #0x08
      00A034 AE 50 0A         [ 2]  164 	ldw	x, #0x500a
      00A037 CD 88 6B         [ 4]  165 	call	_GPIO_WriteHigh
                                    166 ;	src\ds18X20.c: 51: __asm__ ("nop");
      00A03A 9D               [ 1]  167 	nop
                                    168 ;	src\ds18X20.c: 52: __asm__ ("nop");
      00A03B 9D               [ 1]  169 	nop
                                    170 ;	src\ds18X20.c: 53: __asm__ ("nop");
      00A03C 9D               [ 1]  171 	nop
                                    172 ;	src\ds18X20.c: 54: __asm__ ("nop");
      00A03D 9D               [ 1]  173 	nop
                                    174 ;	src\ds18X20.c: 55: __asm__ ("nop");
      00A03E 9D               [ 1]  175 	nop
                                    176 ;	src\ds18X20.c: 56: __asm__ ("nop");
      00A03F 9D               [ 1]  177 	nop
                                    178 ;	src\ds18X20.c: 57: __asm__ ("nop");
      00A040 9D               [ 1]  179 	nop
      00A041                        180 00103$:
                                    181 ;	src\ds18X20.c: 59: data >>= 1;
      00A041 04 01            [ 1]  182 	srl	(0x01, sp)
                                    183 ;	src\ds18X20.c: 28: for(uint8_t i = 0; i < 8; i++)
      00A043 0C 02            [ 1]  184 	inc	(0x02, sp)
      00A045 20 B3            [ 2]  185 	jra	00106$
      00A047                        186 00108$:
                                    187 ;	src\ds18X20.c: 61: }
      00A047 85               [ 2]  188 	popw	x
      00A048 81               [ 4]  189 	ret
                                    190 ;	src\ds18X20.c: 63: uint8_t DS18X20_Read_Byte(void) {
                                    191 ;	-----------------------------------------
                                    192 ;	 function DS18X20_Read_Byte
                                    193 ;	-----------------------------------------
      00A049                        194 _DS18X20_Read_Byte:
      00A049 89               [ 2]  195 	pushw	x
                                    196 ;	src\ds18X20.c: 64: uint8_t result = 0;
      00A04A 0F 01            [ 1]  197 	clr	(0x01, sp)
                                    198 ;	src\ds18X20.c: 66: for(uint8_t i = 0; i < 8; i++)
      00A04C 0F 02            [ 1]  199 	clr	(0x02, sp)
      00A04E                        200 00105$:
      00A04E 7B 02            [ 1]  201 	ld	a, (0x02, sp)
      00A050 A1 08            [ 1]  202 	cp	a, #0x08
      00A052 24 40            [ 1]  203 	jrnc	00103$
                                    204 ;	src\ds18X20.c: 68: result >>= 1;
      00A054 04 01            [ 1]  205 	srl	(0x01, sp)
                                    206 ;	src\ds18X20.c: 69: OW_LOW();                 /* master - drive bus low */
      00A056 A6 08            [ 1]  207 	ld	a, #0x08
      00A058 AE 50 0A         [ 2]  208 	ldw	x, #0x500a
      00A05B CD 88 74         [ 4]  209 	call	_GPIO_WriteLow
                                    210 ;	src\ds18X20.c: 71: __asm__ ("nop");
      00A05E 9D               [ 1]  211 	nop
                                    212 ;	src\ds18X20.c: 72: __asm__ ("nop");
      00A05F 9D               [ 1]  213 	nop
                                    214 ;	src\ds18X20.c: 73: __asm__ ("nop");
      00A060 9D               [ 1]  215 	nop
                                    216 ;	src\ds18X20.c: 74: __asm__ ("nop");
      00A061 9D               [ 1]  217 	nop
                                    218 ;	src\ds18X20.c: 75: __asm__ ("nop");
      00A062 9D               [ 1]  219 	nop
                                    220 ;	src\ds18X20.c: 76: __asm__ ("nop");
      00A063 9D               [ 1]  221 	nop
                                    222 ;	src\ds18X20.c: 77: __asm__ ("nop");
      00A064 9D               [ 1]  223 	nop
                                    224 ;	src\ds18X20.c: 78: OW_HIGH();                /* master - release bus */
      00A065 A6 08            [ 1]  225 	ld	a, #0x08
      00A067 AE 50 0A         [ 2]  226 	ldw	x, #0x500a
      00A06A CD 88 6B         [ 4]  227 	call	_GPIO_WriteHigh
                                    228 ;	src\ds18X20.c: 80: __asm__ ("nop");
      00A06D 9D               [ 1]  229 	nop
                                    230 ;	src\ds18X20.c: 81: __asm__ ("nop");
      00A06E 9D               [ 1]  231 	nop
                                    232 ;	src\ds18X20.c: 82: __asm__ ("nop");
      00A06F 9D               [ 1]  233 	nop
                                    234 ;	src\ds18X20.c: 83: __asm__ ("nop");
      00A070 9D               [ 1]  235 	nop
                                    236 ;	src\ds18X20.c: 84: __asm__ ("nop");
      00A071 9D               [ 1]  237 	nop
                                    238 ;	src\ds18X20.c: 85: __asm__ ("nop");
      00A072 9D               [ 1]  239 	nop
                                    240 ;	src\ds18X20.c: 86: __asm__ ("nop");
      00A073 9D               [ 1]  241 	nop
                                    242 ;	src\ds18X20.c: 87: __asm__ ("nop");
      00A074 9D               [ 1]  243 	nop
                                    244 ;	src\ds18X20.c: 88: __asm__ ("nop");
      00A075 9D               [ 1]  245 	nop
                                    246 ;	src\ds18X20.c: 89: __asm__ ("nop");
      00A076 9D               [ 1]  247 	nop
                                    248 ;	src\ds18X20.c: 90: __asm__ ("nop");
      00A077 9D               [ 1]  249 	nop
                                    250 ;	src\ds18X20.c: 91: __asm__ ("nop");
      00A078 9D               [ 1]  251 	nop
                                    252 ;	src\ds18X20.c: 92: __asm__ ("nop");
      00A079 9D               [ 1]  253 	nop
                                    254 ;	src\ds18X20.c: 94: if(OW_READ())  result |= 0x80;
      00A07A A6 08            [ 1]  255 	ld	a, #0x08
      00A07C AE 50 0A         [ 2]  256 	ldw	x, #0x500a
      00A07F CD 88 80         [ 4]  257 	call	_GPIO_ReadInputPin
      00A082 4D               [ 1]  258 	tnz	a
      00A083 27 05            [ 1]  259 	jreq	00102$
      00A085 08 01            [ 1]  260 	sll	(0x01, sp)
      00A087 99               [ 1]  261 	scf
      00A088 06 01            [ 1]  262 	rrc	(0x01, sp)
      00A08A                        263 00102$:
                                    264 ;	src\ds18X20.c: 95: delay_us(55);     /* master - wait 55us (F-50,55,N/A) */
      00A08A AE 00 37         [ 2]  265 	ldw	x, #0x0037
      00A08D CD 9F 8A         [ 4]  266 	call	_delay_us
                                    267 ;	src\ds18X20.c: 66: for(uint8_t i = 0; i < 8; i++)
      00A090 0C 02            [ 1]  268 	inc	(0x02, sp)
      00A092 20 BA            [ 2]  269 	jra	00105$
      00A094                        270 00103$:
                                    271 ;	src\ds18X20.c: 97: return (result);
      00A094 7B 01            [ 1]  272 	ld	a, (0x01, sp)
                                    273 ;	src\ds18X20.c: 98: }
      00A096 85               [ 2]  274 	popw	x
      00A097 81               [ 4]  275 	ret
                                    276 ;	src\ds18X20.c: 100: bool DS18X20_Read_ID(u8 *ROM_ID) {
                                    277 ;	-----------------------------------------
                                    278 ;	 function DS18X20_Read_ID
                                    279 ;	-----------------------------------------
      00A098                        280 _DS18X20_Read_ID:
      00A098 52 03            [ 2]  281 	sub	sp, #3
      00A09A 1F 01            [ 2]  282 	ldw	(0x01, sp), x
                                    283 ;	src\ds18X20.c: 101: if(!DS18X20_Reset()) return FALSE;
      00A09C CD 9F AC         [ 4]  284 	call	_DS18X20_Reset
      00A09F 4D               [ 1]  285 	tnz	a
      00A0A0 26 03            [ 1]  286 	jrne	00102$
      00A0A2 4F               [ 1]  287 	clr	a
      00A0A3 20 26            [ 2]  288 	jra	00107$
      00A0A5                        289 00102$:
                                    290 ;	src\ds18X20.c: 102: DS18X20_Write_Byte(READ_ROM);
      00A0A5 A6 33            [ 1]  291 	ld	a, #0x33
      00A0A7 CD 9F F5         [ 4]  292 	call	_DS18X20_Write_Byte
                                    293 ;	src\ds18X20.c: 103: delay_us(100);
      00A0AA AE 00 64         [ 2]  294 	ldw	x, #0x0064
      00A0AD CD 9F 8A         [ 4]  295 	call	_delay_us
                                    296 ;	src\ds18X20.c: 104: for(uint8_t i = 0; i < 8; i++)
      00A0B0 0F 03            [ 1]  297 	clr	(0x03, sp)
      00A0B2                        298 00105$:
      00A0B2 7B 03            [ 1]  299 	ld	a, (0x03, sp)
      00A0B4 A1 08            [ 1]  300 	cp	a, #0x08
      00A0B6 24 11            [ 1]  301 	jrnc	00103$
                                    302 ;	src\ds18X20.c: 106: ROM_ID[i] = DS18X20_Read_Byte();
      00A0B8 5F               [ 1]  303 	clrw	x
      00A0B9 7B 03            [ 1]  304 	ld	a, (0x03, sp)
      00A0BB 97               [ 1]  305 	ld	xl, a
      00A0BC 72 FB 01         [ 2]  306 	addw	x, (0x01, sp)
      00A0BF 89               [ 2]  307 	pushw	x
      00A0C0 CD A0 49         [ 4]  308 	call	_DS18X20_Read_Byte
      00A0C3 85               [ 2]  309 	popw	x
      00A0C4 F7               [ 1]  310 	ld	(x), a
                                    311 ;	src\ds18X20.c: 104: for(uint8_t i = 0; i < 8; i++)
      00A0C5 0C 03            [ 1]  312 	inc	(0x03, sp)
      00A0C7 20 E9            [ 2]  313 	jra	00105$
      00A0C9                        314 00103$:
                                    315 ;	src\ds18X20.c: 108: return TRUE;
      00A0C9 A6 01            [ 1]  316 	ld	a, #0x01
      00A0CB                        317 00107$:
                                    318 ;	src\ds18X20.c: 109: }
      00A0CB 5B 03            [ 2]  319 	addw	sp, #3
      00A0CD 81               [ 4]  320 	ret
                                    321 ;	src\ds18X20.c: 111: bool DS18X20_Skip_ID() {
                                    322 ;	-----------------------------------------
                                    323 ;	 function DS18X20_Skip_ID
                                    324 ;	-----------------------------------------
      00A0CE                        325 _DS18X20_Skip_ID:
                                    326 ;	src\ds18X20.c: 112: if(!DS18X20_Reset()) return FALSE;
      00A0CE CD 9F AC         [ 4]  327 	call	_DS18X20_Reset
      00A0D1 4D               [ 1]  328 	tnz	a
      00A0D2 26 02            [ 1]  329 	jrne	00102$
      00A0D4 4F               [ 1]  330 	clr	a
      00A0D5 81               [ 4]  331 	ret
      00A0D6                        332 00102$:
                                    333 ;	src\ds18X20.c: 113: DS18X20_Write_Byte(SKIP_ROM);
      00A0D6 A6 CC            [ 1]  334 	ld	a, #0xcc
      00A0D8 CD 9F F5         [ 4]  335 	call	_DS18X20_Write_Byte
                                    336 ;	src\ds18X20.c: 114: delay_us(100);
      00A0DB AE 00 64         [ 2]  337 	ldw	x, #0x0064
      00A0DE CD 9F 8A         [ 4]  338 	call	_delay_us
                                    339 ;	src\ds18X20.c: 115: return TRUE;
      00A0E1 A6 01            [ 1]  340 	ld	a, #0x01
                                    341 ;	src\ds18X20.c: 116: }
      00A0E3 81               [ 4]  342 	ret
                                    343 ;	src\ds18X20.c: 118: float DS18X20_Get_Temperature() {
                                    344 ;	-----------------------------------------
                                    345 ;	 function DS18X20_Get_Temperature
                                    346 ;	-----------------------------------------
      00A0E4                        347 _DS18X20_Get_Temperature:
      00A0E4 52 05            [ 2]  348 	sub	sp, #5
                                    349 ;	src\ds18X20.c: 123: int8_t sign = 1;
      00A0E6 A6 01            [ 1]  350 	ld	a, #0x01
      00A0E8 6B 01            [ 1]  351 	ld	(0x01, sp), a
                                    352 ;	src\ds18X20.c: 125: DS18X20_Skip_ID();
      00A0EA CD A0 CE         [ 4]  353 	call	_DS18X20_Skip_ID
                                    354 ;	src\ds18X20.c: 126: if (!DS18X20_Skip_ID()) {
      00A0ED CD A0 CE         [ 4]  355 	call	_DS18X20_Skip_ID
      00A0F0 4D               [ 1]  356 	tnz	a
      00A0F1 26 07            [ 1]  357 	jrne	00102$
                                    358 ;	src\ds18X20.c: 127: return temperature;
      00A0F3 5F               [ 1]  359 	clrw	x
      00A0F4 90 AE C2 C8      [ 2]  360 	ldw	y, #0xc2c8
      00A0F8 20 6C            [ 2]  361 	jra	00107$
      00A0FA                        362 00102$:
                                    363 ;	src\ds18X20.c: 129: DS18X20_Write_Byte(CONVERT_T);
      00A0FA A6 44            [ 1]  364 	ld	a, #0x44
      00A0FC CD 9F F5         [ 4]  365 	call	_DS18X20_Write_Byte
                                    366 ;	src\ds18X20.c: 130: delay_ms(4000);
      00A0FF AE 0F A0         [ 2]  367 	ldw	x, #0x0fa0
      00A102 CD 9F 9C         [ 4]  368 	call	_delay_ms
                                    369 ;	src\ds18X20.c: 131: DS18X20_Skip_ID();
      00A105 CD A0 CE         [ 4]  370 	call	_DS18X20_Skip_ID
                                    371 ;	src\ds18X20.c: 132: if (!DS18X20_Skip_ID()) {
      00A108 CD A0 CE         [ 4]  372 	call	_DS18X20_Skip_ID
      00A10B 4D               [ 1]  373 	tnz	a
      00A10C 26 07            [ 1]  374 	jrne	00104$
                                    375 ;	src\ds18X20.c: 133: return temperature;
      00A10E 5F               [ 1]  376 	clrw	x
      00A10F 90 AE C2 C8      [ 2]  377 	ldw	y, #0xc2c8
      00A113 20 51            [ 2]  378 	jra	00107$
      00A115                        379 00104$:
                                    380 ;	src\ds18X20.c: 135: DS18X20_Write_Byte(READ_SCRATCHPAD);
      00A115 A6 BE            [ 1]  381 	ld	a, #0xbe
      00A117 CD 9F F5         [ 4]  382 	call	_DS18X20_Write_Byte
                                    383 ;	src\ds18X20.c: 136: lsb = DS18X20_Read_Byte();
      00A11A CD A0 49         [ 4]  384 	call	_DS18X20_Read_Byte
      00A11D 6B 05            [ 1]  385 	ld	(0x05, sp), a
                                    386 ;	src\ds18X20.c: 137: msb = DS18X20_Read_Byte();
      00A11F CD A0 49         [ 4]  387 	call	_DS18X20_Read_Byte
                                    388 ;	src\ds18X20.c: 138: if (msb >> 7) {
      00A122 95               [ 1]  389 	ld	xh, a
      00A123 4E               [ 1]  390 	swap	a
      00A124 A4 0F            [ 1]  391 	and	a, #0x0f
      00A126 44               [ 1]  392 	srl	a
      00A127 44               [ 1]  393 	srl	a
      00A128 44               [ 1]  394 	srl	a
      00A129 4D               [ 1]  395 	tnz	a
      00A12A 27 09            [ 1]  396 	jreq	00106$
                                    397 ;	src\ds18X20.c: 139: msb = ~msb;
      00A12C 9E               [ 1]  398 	ld	a, xh
      00A12D 43               [ 1]  399 	cpl	a
      00A12E 95               [ 1]  400 	ld	xh, a
                                    401 ;	src\ds18X20.c: 140: lsb = ~lsb;
      00A12F 03 05            [ 1]  402 	cpl	(0x05, sp)
                                    403 ;	src\ds18X20.c: 141: sign = -1;
      00A131 A6 FF            [ 1]  404 	ld	a, #0xff
      00A133 6B 01            [ 1]  405 	ld	(0x01, sp), a
      00A135                        406 00106$:
                                    407 ;	src\ds18X20.c: 143: temp = msb;
                                    408 ;	src\ds18X20.c: 144: temp = temp << 8;
      00A135 0F 03            [ 1]  409 	clr	(0x03, sp)
                                    410 ;	src\ds18X20.c: 145: temp |= lsb;
      00A137 7B 05            [ 1]  411 	ld	a, (0x05, sp)
      00A139 0F 04            [ 1]  412 	clr	(0x04, sp)
      00A13B 1A 03            [ 1]  413 	or	a, (0x03, sp)
      00A13D 02               [ 1]  414 	rlwa	x
      00A13E 1A 04            [ 1]  415 	or	a, (0x04, sp)
                                    416 ;	src\ds18X20.c: 146: temp += 1;
      00A140 95               [ 1]  417 	ld	xh, a
      00A141 5C               [ 1]  418 	incw	x
                                    419 ;	src\ds18X20.c: 168: return temperature = temp * 0.0625 * sign;
      00A142 CD B1 AD         [ 4]  420 	call	___sint2fs
      00A145 89               [ 2]  421 	pushw	x
      00A146 90 89            [ 2]  422 	pushw	y
      00A148 5F               [ 1]  423 	clrw	x
      00A149 89               [ 2]  424 	pushw	x
      00A14A 4B 80            [ 1]  425 	push	#0x80
      00A14C 4B 3D            [ 1]  426 	push	#0x3d
      00A14E CD AA C8         [ 4]  427 	call	___fsmul
      00A151 1F 04            [ 2]  428 	ldw	(0x04, sp), x
      00A153 17 02            [ 2]  429 	ldw	(0x02, sp), y
      00A155 7B 01            [ 1]  430 	ld	a, (0x01, sp)
      00A157 CD B2 6A         [ 4]  431 	call	___schar2fs
      00A15A 89               [ 2]  432 	pushw	x
      00A15B 90 89            [ 2]  433 	pushw	y
      00A15D 1E 08            [ 2]  434 	ldw	x, (0x08, sp)
      00A15F 89               [ 2]  435 	pushw	x
      00A160 1E 08            [ 2]  436 	ldw	x, (0x08, sp)
      00A162 89               [ 2]  437 	pushw	x
      00A163 CD AA C8         [ 4]  438 	call	___fsmul
      00A166                        439 00107$:
                                    440 ;	src\ds18X20.c: 169: }
      00A166 5B 05            [ 2]  441 	addw	sp, #5
      00A168 81               [ 4]  442 	ret
                                    443 ;	src\ds18X20.c: 171: void DS18X20_Setup(void) {
                                    444 ;	-----------------------------------------
                                    445 ;	 function DS18X20_Setup
                                    446 ;	-----------------------------------------
      00A169                        447 _DS18X20_Setup:
                                    448 ;	src\ds18X20.c: 172: OW_OUTPUT();
      00A169 AE 50 0A         [ 2]  449 	ldw	x, #0x500a
      00A16C CD 87 81         [ 4]  450 	call	_GPIO_DeInit
      00A16F 4B F0            [ 1]  451 	push	#0xf0
      00A171 A6 08            [ 1]  452 	ld	a, #0x08
      00A173 AE 50 0A         [ 2]  453 	ldw	x, #0x500a
      00A176 CD 87 8F         [ 4]  454 	call	_GPIO_Init
                                    455 ;	src\ds18X20.c: 173: }
      00A179 81               [ 4]  456 	ret
                                    457 	.area CODE
                                    458 	.area CONST
                                    459 	.area INITIALIZER
                                    460 	.area CABS (ABS)
